target datalayout = "e-m:e-p270:32:32-p271:32:32-p272:64:64-i64:64-i128:128-f80:128-n8:16:32:64-S128"
target triple = "x86_64-pc-linux-gnu"

%struct.added_obj_st = type { i32, ptr }
%struct.asn1_object_st = type { ptr, ptr, i32, i32, ptr, i32 }

; Function Attrs: nounwind uwtable
define internal void @cleanup2_doall(ptr noundef %0) #0 {
  %2 = alloca ptr, align 8
  store ptr %0, ptr %2, align 8, !tbaa !11
  %3 = load ptr, ptr %2, align 8, !tbaa !11
  %4 = getelementptr inbounds nuw %struct.added_obj_st, ptr %3, i32 0, i32 1
  %5 = load ptr, ptr %4, align 8, !tbaa !13
  %6 = getelementptr inbounds nuw %struct.asn1_object_st, ptr %5, i32 0, i32 2
  %7 = load i32, ptr %6, align 8, !tbaa !17
  %8 = add nsw i32 %7, 1
  store i32 %8, ptr %6, align 8, !tbaa !17
  ret void
}